; Function Attrs: mustprogress uwtable
define noundef zeroext i1 @_ZN10OpenSubdiv6v3_6_03Osd12CpuEvaluator12EvalStencilsEPKfRKNS1_16BufferDescriptorEPfS7_S8_S7_S8_S7_S8_S7_S8_S7_S8_S7_PKiSA_SA_S4_S4_S4_S4_S4_S4_ii(ptr noundef %0, ptr noundef nonnull align 4 dereferenceable(12) %1, ptr noundef %2, ptr noundef nonnull align 4 dereferenceable(12) %3, ptr noundef %4, ptr noundef nonnull align 4 dereferenceable(12) %5, ptr noundef %6, ptr noundef nonnull align 4 dereferenceable(12) %7, ptr noundef %8, ptr noundef nonnull align 4 dereferenceable(12) %9, ptr noundef %10, ptr noundef nonnull align 4 dereferenceable(12) %11, ptr noundef %12, ptr noundef nonnull align 4 dereferenceable(12) %13, ptr noundef %14, ptr noundef %15, ptr noundef %16, ptr noundef %17, ptr noundef %18, ptr noundef %19, ptr noundef %20, ptr noundef %21, ptr noundef %22, i32 noundef %23, i32 noundef %24) local_unnamed_addr #3 align 2 {
  %.not = icmp sgt i32 %24, %23
  br i1 %.not, label %26, label %42

26:                                               ; preds = %25
  %27 = getelementptr inbounds nuw i8, ptr %1, i64 4
  %28 = load i32, ptr %27, align 4
  %29 = getelementptr inbounds nuw i8, ptr %3, i64 4
  %30 = load i32, ptr %29, align 4
  %.not42 = icmp eq i32 %28, %30
  %31 = getelementptr inbounds nuw i8, ptr %5, i64 4
  %32 = load i32, ptr %31, align 4
  %.not43 = icmp eq i32 %28, %32
  %or.cond = select i1 %.not42, i1 %.not43, i1 false
  %33 = getelementptr inbounds nuw i8, ptr %7, i64 4
  %34 = load i32, ptr %33, align 4
  %.not44 = icmp eq i32 %28, %34
  %or.cond50 = select i1 %or.cond, i1 %.not44, i1 false
  %35 = getelementptr inbounds nuw i8, ptr %9, i64 4
  %36 = load i32, ptr %35, align 4
  %.not45 = icmp eq i32 %28, %36
  %or.cond52 = select i1 %or.cond50, i1 %.not45, i1 false
  %37 = getelementptr inbounds nuw i8, ptr %11, i64 4
  %38 = load i32, ptr %37, align 4
  %.not46 = icmp eq i32 %28, %38
  %or.cond54 = select i1 %or.cond52, i1 %.not46, i1 false
  %39 = getelementptr inbounds nuw i8, ptr %13, i64 4
  %40 = load i32, ptr %39, align 4
  %.not47 = icmp eq i32 %28, %40
  %or.cond56 = select i1 %or.cond54, i1 %.not47, i1 false
  br i1 %or.cond56, label %41, label %42

41:                                               ; preds = %26
  tail call void @_ZN10OpenSubdiv6v3_6_03Osd15CpuEvalStencilsEPKfRKNS1_16BufferDescriptorEPfS6_S7_S6_S7_S6_S7_S6_S7_S6_S7_S6_PKiS9_S9_S3_S3_S3_S3_S3_S3_ii(ptr noundef %0, ptr noundef nonnull align 4 dereferenceable(12) %1, ptr noundef %2, ptr noundef nonnull align 4 dereferenceable(12) %3, ptr noundef %4, ptr noundef nonnull align 4 dereferenceable(12) %5, ptr noundef %6, ptr noundef nonnull align 4 dereferenceable(12) %7, ptr noundef %8, ptr noundef nonnull align 4 dereferenceable(12) %9, ptr noundef %10, ptr noundef nonnull align 4 dereferenceable(12) %11, ptr noundef %12, ptr noundef nonnull align 4 dereferenceable(12) %13, ptr noundef %14, ptr noundef %15, ptr noundef %16, ptr noundef %17, ptr noundef %18, ptr noundef %19, ptr noundef %20, ptr noundef %21, ptr noundef %22, i32 noundef %23, i32 noundef %24)
  br label %42

42:                                               ; preds = %26, %25, %41
  %.0 = phi i1 [ true, %41 ], [ true, %25 ], [ false, %26 ]
  ret i1 %.0
}